; ModuleID = '15/2302.c'
source_filename = "15/2302.c"
target datalayout = "e-m:e-p270:32:32-p271:32:32-p272:64:64-i64:64-f80:128-n8:16:32:64-S128"
target triple = "x86_64-pc-linux-gnu"

@.str = private unnamed_addr constant [3 x i8] c"%d\00", align 1

; Function Attrs: noinline nounwind uwtable
define dso_local i32 @main() #0 {
  %1 = alloca i32, align 4
  %2 = alloca i32, align 4
  %3 = alloca i8*, align 8
  %4 = alloca i64, align 8
  %5 = alloca i64, align 8
  %6 = alloca i32, align 4
  %7 = alloca i32, align 4
  %8 = alloca i32, align 4
  %9 = alloca i32, align 4
  %10 = alloca i32, align 4
  %11 = alloca i32, align 4
  %12 = alloca i32, align 4
  %13 = alloca i32, align 4
  store i32 0, i32* %1, align 4
  %14 = call i32 (i8*, ...) @__isoc99_scanf(i8* getelementptr inbounds ([3 x i8], [3 x i8]* @.str, i64 0, i64 0), i32* %2)
  %15 = load i32, i32* %2, align 4
  %16 = zext i32 %15 to i64
  %17 = load i32, i32* %2, align 4
  %18 = zext i32 %17 to i64
  %19 = call i8* @llvm.stacksave()
  store i8* %19, i8** %3, align 8
  %20 = mul nuw i64 %16, %18
  %21 = alloca i32, i64 %20, align 16
  store i64 %16, i64* %4, align 8
  store i64 %18, i64* %5, align 8
  store i32 0, i32* %13, align 4
  store i32 0, i32* %11, align 4
  br label %22

22:                                               ; preds = %46, %0
  %23 = load i32, i32* %11, align 4
  %24 = load i32, i32* %2, align 4
  %25 = sub nsw i32 %24, 1
  %26 = icmp sle i32 %23, %25
  br i1 %26, label %27, label %49

27:                                               ; preds = %22
  store i32 0, i32* %12, align 4
  br label %28

28:                                               ; preds = %42, %27
  %29 = load i32, i32* %12, align 4
  %30 = load i32, i32* %2, align 4
  %31 = sub nsw i32 %30, 1
  %32 = icmp sle i32 %29, %31
  br i1 %32, label %33, label %45

33:                                               ; preds = %28
  %34 = load i32, i32* %11, align 4
  %35 = sext i32 %34 to i64
  %36 = mul nsw i64 %35, %18
  %37 = getelementptr inbounds i32, i32* %21, i64 %36
  %38 = load i32, i32* %12, align 4
  %39 = sext i32 %38 to i64
  %40 = getelementptr inbounds i32, i32* %37, i64 %39
  %41 = call i32 (i8*, ...) @__isoc99_scanf(i8* getelementptr inbounds ([3 x i8], [3 x i8]* @.str, i64 0, i64 0), i32* %40)
  br label %42

42:                                               ; preds = %33
  %43 = load i32, i32* %12, align 4
  %44 = add nsw i32 %43, 1
  store i32 %44, i32* %12, align 4
  br label %28

45:                                               ; preds = %28
  br label %46

46:                                               ; preds = %45
  %47 = load i32, i32* %11, align 4
  %48 = add nsw i32 %47, 1
  store i32 %48, i32* %11, align 4
  br label %22

49:                                               ; preds = %22
  store i32 0, i32* %11, align 4
  br label %50

50:                                               ; preds = %97, %49
  %51 = load i32, i32* %11, align 4
  %52 = load i32, i32* %2, align 4
  %53 = sub nsw i32 %52, 1
  %54 = icmp sle i32 %51, %53
  br i1 %54, label %55, label %100

55:                                               ; preds = %50
  store i32 0, i32* %12, align 4
  br label %56

56:                                               ; preds = %93, %55
  %57 = load i32, i32* %12, align 4
  %58 = load i32, i32* %2, align 4
  %59 = sub nsw i32 %58, 1
  %60 = icmp sle i32 %57, %59
  br i1 %60, label %61, label %96

61:                                               ; preds = %56
  %62 = load i32, i32* %11, align 4
  %63 = sext i32 %62 to i64
  %64 = mul nsw i64 %63, %18
  %65 = getelementptr inbounds i32, i32* %21, i64 %64
  %66 = load i32, i32* %12, align 4
  %67 = sext i32 %66 to i64
  %68 = getelementptr inbounds i32, i32* %65, i64 %67
  %69 = load i32, i32* %68, align 4
  %70 = icmp eq i32 %69, 0
  br i1 %70, label %71, label %79

71:                                               ; preds = %61
  %72 = load i32, i32* %13, align 4
  %73 = icmp eq i32 %72, 0
  br i1 %73, label %74, label %79

74:                                               ; preds = %71
  %75 = load i32, i32* %11, align 4
  store i32 %75, i32* %6, align 4
  %76 = load i32, i32* %12, align 4
  store i32 %76, i32* %7, align 4
  %77 = load i32, i32* %13, align 4
  %78 = add nsw i32 %77, 1
  store i32 %78, i32* %13, align 4
  br label %79

79:                                               ; preds = %74, %71, %61
  %80 = load i32, i32* %11, align 4
  %81 = sext i32 %80 to i64
  %82 = mul nsw i64 %81, %18
  %83 = getelementptr inbounds i32, i32* %21, i64 %82
  %84 = load i32, i32* %12, align 4
  %85 = sext i32 %84 to i64
  %86 = getelementptr inbounds i32, i32* %83, i64 %85
  %87 = load i32, i32* %86, align 4
  %88 = icmp eq i32 %87, 0
  br i1 %88, label %89, label %92

89:                                               ; preds = %79
  %90 = load i32, i32* %11, align 4
  store i32 %90, i32* %8, align 4
  %91 = load i32, i32* %12, align 4
  store i32 %91, i32* %9, align 4
  br label %92

92:                                               ; preds = %89, %79
  br label %93

93:                                               ; preds = %92
  %94 = load i32, i32* %12, align 4
  %95 = add nsw i32 %94, 1
  store i32 %95, i32* %12, align 4
  br label %56

96:                                               ; preds = %56
  br label %97

97:                                               ; preds = %96
  %98 = load i32, i32* %11, align 4
  %99 = add nsw i32 %98, 1
  store i32 %99, i32* %11, align 4
  br label %50

100:                                              ; preds = %50
  %101 = load i32, i32* %8, align 4
  %102 = load i32, i32* %6, align 4
  %103 = sub nsw i32 %101, %102
  %104 = sub nsw i32 %103, 1
  %105 = load i32, i32* %9, align 4
  %106 = load i32, i32* %7, align 4
  %107 = sub nsw i32 %105, %106
  %108 = sub nsw i32 %107, 1
  %109 = mul nsw i32 %104, %108
  store i32 %109, i32* %10, align 4
  %110 = load i32, i32* %10, align 4
  %111 = call i32 (i8*, ...) @printf(i8* getelementptr inbounds ([3 x i8], [3 x i8]* @.str, i64 0, i64 0), i32 %110)
  %112 = load i8*, i8** %3, align 8
  call void @llvm.stackrestore(i8* %112)
  %113 = load i32, i32* %1, align 4
  ret i32 %113
}

declare dso_local i32 @__isoc99_scanf(i8*, ...) #1

; Function Attrs: nounwind
declare i8* @llvm.stacksave() #2

declare dso_local i32 @printf(i8*, ...) #1

; Function Attrs: nounwind
declare void @llvm.stackrestore(i8*) #2


!llvm.module.flags = !{!0}
!llvm.ident = !{!1}

!0 = !{i32 1, !"wchar_size", i32 4}
!1 = !{!"clang version 10.0.0-4ubuntu1 "}
